target datalayout = "e-m:e-p270:32:32-p271:32:32-p272:64:64-i64:64-i128:128-f80:128-n8:16:32:64-S128"
target triple = "x86_64-pc-linux-gnu"

%"class.__gnu_cxx::__normal_iterator" = type { ptr }
%class.anon.118 = type { ptr, ptr, %"class.__gnu_cxx::__normal_iterator", %"class.__gnu_cxx::__normal_iterator", i64 }

; Function Attrs: mustprogress nounwind uwtable
define internal void @"_ZZN4llvm8parallel6detail19parallel_quick_sortIN9__gnu_cxx17__normal_iteratorIPNS_3pdb10BulkPublicESt6vectorIS6_SaIS6_EEEEZNS5_16GSIStreamBuilder16addPublicSymbolsEOSA_E3$_0EEvT_SF_RKT0_RNS0_9TaskGroupEmENKUlvE_clEv"(ptr noundef nonnull align 8 dereferenceable(40) %0) #0 align 2 {
  %2 = alloca ptr, align 8
  %3 = alloca %"class.__gnu_cxx::__normal_iterator", align 8
  %4 = alloca %"class.__gnu_cxx::__normal_iterator", align 8
  store ptr %0, ptr %2, align 8
  %5 = load ptr, ptr %2, align 8
  %6 = getelementptr inbounds nuw %class.anon.118, ptr %5, i32 0, i32 2
  call void @llvm.memcpy.p0.p0.i64(ptr align 8 %3, ptr align 8 %6, i64 8, i1 false)
  %7 = getelementptr inbounds nuw %class.anon.118, ptr %5, i32 0, i32 3
  call void @llvm.memcpy.p0.p0.i64(ptr align 8 %4, ptr align 8 %7, i64 8, i1 false)
  %8 = getelementptr inbounds nuw %class.anon.118, ptr %5, i32 0, i32 0
  %9 = load ptr, ptr %8, align 8
  %10 = getelementptr inbounds nuw %class.anon.118, ptr %5, i32 0, i32 1
  %11 = load ptr, ptr %10, align 8
  %12 = getelementptr inbounds nuw %class.anon.118, ptr %5, i32 0, i32 4
  %13 = load i64, ptr %12, align 8
  %14 = sub i64 %13, 1
  %15 = getelementptr inbounds nuw %"class.__gnu_cxx::__normal_iterator", ptr %3, i32 0, i32 0
  %16 = load ptr, ptr %15, align 8
  %17 = getelementptr inbounds nuw %"class.__gnu_cxx::__normal_iterator", ptr %4, i32 0, i32 0
  %18 = load ptr, ptr %17, align 8
  call void @"_ZN4llvm8parallel6detail19parallel_quick_sortIN9__gnu_cxx17__normal_iteratorIPNS_3pdb10BulkPublicESt6vectorIS6_SaIS6_EEEEZNS5_16GSIStreamBuilder16addPublicSymbolsEOSA_E3$_0EEvT_SF_RKT0_RNS0_9TaskGroupEm"(ptr %16, ptr %18, ptr noundef nonnull align 1 dereferenceable(1) %9, ptr noundef nonnull align 8 dereferenceable(97) %11, i64 noundef %14)
  ret void
}

; Function Attrs: mustprogress nounwind uwtable
define linkonce_odr hidden noundef ptr @_ZNKSt9_Any_data9_M_accessEv(ptr noundef nonnull align 8 dereferenceable(16) %0) #0 comdat align 2 {
  %2 = alloca ptr, align 8
  store ptr %0, ptr %2, align 8
  %3 = load ptr, ptr %2, align 8
  %4 = getelementptr inbounds [16 x i8], ptr %3, i64 0, i64 0
  ret ptr %4
}

; Function Attrs: mustprogress nounwind uwtable
define internal void @"_ZSt13__invoke_implIvRZN4llvm8parallel6detail19parallel_quick_sortIN9__gnu_cxx17__normal_iteratorIPNS0_3pdb10BulkPublicESt6vectorIS7_SaIS7_EEEEZNS6_16GSIStreamBuilder16addPublicSymbolsEOSB_E3$_0EEvT_SG_RKT0_RNS1_9TaskGroupEmEUlvE_JEESG_St14__invoke_otherOSH_DpOT1_"(ptr noundef nonnull align 8 dereferenceable(40) %0) #0 {
  %2 = alloca ptr, align 8
  store ptr %0, ptr %2, align 8
  %3 = load ptr, ptr %2, align 8
  call void @"_ZZN4llvm8parallel6detail19parallel_quick_sortIN9__gnu_cxx17__normal_iteratorIPNS_3pdb10BulkPublicESt6vectorIS6_SaIS6_EEEEZNS5_16GSIStreamBuilder16addPublicSymbolsEOSA_E3$_0EEvT_SF_RKT0_RNS0_9TaskGroupEmENKUlvE_clEv"(ptr noundef nonnull align 8 dereferenceable(40) %3)
  ret void
}

; Function Attrs: mustprogress nounwind uwtable
define internal noundef nonnull align 8 dereferenceable(8) ptr @"_ZNKSt9_Any_data9_M_accessIPZN4llvm8parallel6detail19parallel_quick_sortIN9__gnu_cxx17__normal_iteratorIPNS1_3pdb10BulkPublicESt6vectorIS8_SaIS8_EEEEZNS7_16GSIStreamBuilder16addPublicSymbolsEOSC_E3$_0EEvT_SH_RKT0_RNS2_9TaskGroupEmEUlvE_EERKSH_v"(ptr noundef nonnull align 8 dereferenceable(16) %0) #0 align 2 {
  %2 = alloca ptr, align 8
  store ptr %0, ptr %2, align 8
  %3 = load ptr, ptr %2, align 8
  %4 = call noundef ptr @_ZNKSt9_Any_data9_M_accessEv(ptr noundef nonnull align 8 dereferenceable(16) %3) #5
  ret ptr %4
}

; Function Attrs: mustprogress nounwind uwtable
define internal void @"_ZSt10__invoke_rIvRZN4llvm8parallel6detail19parallel_quick_sortIN9__gnu_cxx17__normal_iteratorIPNS0_3pdb10BulkPublicESt6vectorIS7_SaIS7_EEEEZNS6_16GSIStreamBuilder16addPublicSymbolsEOSB_E3$_0EEvT_SG_RKT0_RNS1_9TaskGroupEmEUlvE_JEENSt9enable_ifIX16is_invocable_r_vISG_SH_DpT1_EESG_E4typeEOSH_DpOSP_"(ptr noundef nonnull align 8 dereferenceable(40) %0) #0 {
  %2 = alloca ptr, align 8
  store ptr %0, ptr %2, align 8
  %3 = load ptr, ptr %2, align 8
  call void @"_ZSt13__invoke_implIvRZN4llvm8parallel6detail19parallel_quick_sortIN9__gnu_cxx17__normal_iteratorIPNS0_3pdb10BulkPublicESt6vectorIS7_SaIS7_EEEEZNS6_16GSIStreamBuilder16addPublicSymbolsEOSB_E3$_0EEvT_SG_RKT0_RNS1_9TaskGroupEmEUlvE_JEESG_St14__invoke_otherOSH_DpOT1_"(ptr noundef nonnull align 8 dereferenceable(40) %3)
  ret void
}

; Function Attrs: mustprogress nounwind uwtable
define internal noundef ptr @"_ZNSt14_Function_base13_Base_managerIZN4llvm8parallel6detail19parallel_quick_sortIN9__gnu_cxx17__normal_iteratorIPNS1_3pdb10BulkPublicESt6vectorIS8_SaIS8_EEEEZNS7_16GSIStreamBuilder16addPublicSymbolsEOSC_E3$_0EEvT_SH_RKT0_RNS2_9TaskGroupEmEUlvE_E14_M_get_pointerERKSt9_Any_data"(ptr noundef nonnull align 8 dereferenceable(16) %0) #0 align 2 {
  %2 = alloca ptr, align 8
  store ptr %0, ptr %2, align 8
  %3 = load ptr, ptr %2, align 8
  %4 = call noundef nonnull align 8 dereferenceable(8) ptr @"_ZNKSt9_Any_data9_M_accessIPZN4llvm8parallel6detail19parallel_quick_sortIN9__gnu_cxx17__normal_iteratorIPNS1_3pdb10BulkPublicESt6vectorIS8_SaIS8_EEEEZNS7_16GSIStreamBuilder16addPublicSymbolsEOSC_E3$_0EEvT_SH_RKT0_RNS2_9TaskGroupEmEUlvE_EERKSH_v"(ptr noundef nonnull align 8 dereferenceable(16) %3) #5
  %5 = load ptr, ptr %4, align 8
  ret ptr %5
}

; Function Attrs: mustprogress nounwind uwtable
define internal void @"_ZNSt17_Function_handlerIFvvEZN4llvm8parallel6detail19parallel_quick_sortIN9__gnu_cxx17__normal_iteratorIPNS1_3pdb10BulkPublicESt6vectorIS8_SaIS8_EEEEZNS7_16GSIStreamBuilder16addPublicSymbolsEOSC_E3$_0EEvT_SH_RKT0_RNS2_9TaskGroupEmEUlvE_E9_M_invokeERKSt9_Any_data"(ptr noundef nonnull align 8 dereferenceable(16) %0) #0 align 2 {
  %2 = alloca ptr, align 8
  store ptr %0, ptr %2, align 8
  %3 = load ptr, ptr %2, align 8
  %4 = call noundef ptr @"_ZNSt14_Function_base13_Base_managerIZN4llvm8parallel6detail19parallel_quick_sortIN9__gnu_cxx17__normal_iteratorIPNS1_3pdb10BulkPublicESt6vectorIS8_SaIS8_EEEEZNS7_16GSIStreamBuilder16addPublicSymbolsEOSC_E3$_0EEvT_SH_RKT0_RNS2_9TaskGroupEmEUlvE_E14_M_get_pointerERKSt9_Any_data"(ptr noundef nonnull align 8 dereferenceable(16) %3) #5
  call void @"_ZSt10__invoke_rIvRZN4llvm8parallel6detail19parallel_quick_sortIN9__gnu_cxx17__normal_iteratorIPNS0_3pdb10BulkPublicESt6vectorIS7_SaIS7_EEEEZNS6_16GSIStreamBuilder16addPublicSymbolsEOSB_E3$_0EEvT_SG_RKT0_RNS1_9TaskGroupEmEUlvE_JEENSt9enable_ifIX16is_invocable_r_vISG_SH_DpT1_EESG_E4typeEOSH_DpOSP_"(ptr noundef nonnull align 8 dereferenceable(40) %4)
  ret void
}