; Function Attrs: mustprogress nounwind uwtable
define internal void @"_ZNSt17_Function_handlerIFvvEZN4llvm8parallel6detail19parallel_quick_sortIN9__gnu_cxx17__normal_iteratorIPNS1_3pdb10BulkPublicESt6vectorIS8_SaIS8_EEEEZNS7_16GSIStreamBuilder16addPublicSymbolsEOSC_E3$_0EEvT_SH_RKT0_RNS2_9TaskGroupEmEUlvE_E9_M_invokeERKSt9_Any_data"(ptr noundef nonnull readonly align 8 captures(none) dereferenceable(16) %0) #1 align 2 {
  %.val = load ptr, ptr %0, align 8
  %2 = getelementptr inbounds nuw i8, ptr %.val, i64 16
  %.sroa.01.0.copyload.i.i.i = load ptr, ptr %2, align 8
  %3 = getelementptr inbounds nuw i8, ptr %.val, i64 24
  %.sroa.0.0.copyload.i.i.i = load ptr, ptr %3, align 8
  %4 = load ptr, ptr %.val, align 8
  %5 = getelementptr inbounds nuw i8, ptr %.val, i64 8
  %6 = load ptr, ptr %5, align 8
  %7 = getelementptr inbounds nuw i8, ptr %.val, i64 32
  %8 = load i64, ptr %7, align 8
  %9 = add i64 %8, -1
  tail call fastcc void @"_ZN4llvm8parallel6detail19parallel_quick_sortIN9__gnu_cxx17__normal_iteratorIPNS_3pdb10BulkPublicESt6vectorIS6_SaIS6_EEEEZNS5_16GSIStreamBuilder16addPublicSymbolsEOSA_E3$_0EEvT_SF_RKT0_RNS0_9TaskGroupEm"(ptr %.sroa.01.0.copyload.i.i.i, ptr %.sroa.0.0.copyload.i.i.i, ptr noundef nonnull align 1 dereferenceable(1) %4, ptr noundef nonnull align 8 dereferenceable(97) %6, i64 noundef %9)
  ret void
}